; Function Attrs: nounwind uwtable
define dso_local noundef ptr @llvm_emit_alloca_aligned(ptr noundef %0, ptr noundef %1, ptr noundef %2) local_unnamed_addr #0 {
  %4 = tail call ptr @llvm_get_type(ptr noundef %0, ptr noundef %1) #10
  %5 = tail call i32 @type_alloca_alignment(ptr noundef %1) #10
  %6 = getelementptr inbounds i8, ptr %0, i64 64
  %7 = load ptr, ptr %6, align 8
  %8 = tail call ptr @LLVMGetInsertBlock(ptr noundef %7) #10
  %9 = load ptr, ptr %6, align 8
  %10 = getelementptr inbounds i8, ptr %0, i64 56
  %11 = load ptr, ptr %10, align 8
  tail call void @LLVMPositionBuilderBefore(ptr noundef %9, ptr noundef %11) #10
  %12 = load ptr, ptr %6, align 8
  %13 = tail call ptr @LLVMBuildAlloca(ptr noundef %12, ptr noundef %4, ptr noundef %2) #10
  tail call void @LLVMSetAlignment(ptr noundef %13, i32 noundef %5) #10
  %14 = load ptr, ptr %6, align 8
  tail call void @LLVMPositionBuilderAtEnd(ptr noundef %14, ptr noundef %8) #10
  ret ptr %13
}